target datalayout = "e-m:e-p270:32:32-p271:32:32-p272:64:64-i64:64-i128:128-f80:128-n8:16:32:64-S128"
target triple = "x86_64-pc-linux-gnu"

%struct.SubPlanState = type { i32, ptr, ptr, ptr, ptr, ptr, i64, ptr, ptr, ptr, ptr, ptr, i8, i8, ptr, ptr, ptr, i32, ptr, ptr, ptr, ptr, ptr, ptr, ptr }
%struct.PlanState = type { i32, ptr, ptr, ptr, ptr, ptr, ptr, ptr, ptr, ptr, ptr, ptr, ptr, ptr, ptr, ptr, ptr, ptr, i8, ptr, ptr, ptr, ptr, ptr, i8, i8, i8, i8, i8, i8, i8, i8 }
%struct.EState = type { i32, i32, ptr, ptr, ptr, i32, ptr, ptr, ptr, ptr, ptr, ptr, ptr, ptr, ptr, ptr, i32, ptr, ptr, ptr, ptr, ptr, ptr, ptr, ptr, ptr, ptr, i64, i64, i32, i32, i8, ptr, ptr, ptr, ptr, ptr, i8, i32, i32, ptr, i32, ptr, ptr, ptr, ptr }
%struct.SubPlan = type { %struct.Expr, i32, ptr, ptr, i32, ptr, i32, i32, i32, i8, i8, i8, ptr, ptr, ptr, double, double }
%struct.Expr = type { i32 }
%struct.ForEachState = type { ptr, i32 }
%struct.List = type { i32, i32, i32, ptr, [0 x %union.ListCell] }
%union.ListCell = type { ptr }
%struct.ParamExecData = type { ptr, i64, i8 }
%struct.Plan = type { i32, i32, double, double, double, i32, i8, i8, i8, i32, ptr, ptr, ptr, ptr, ptr, ptr, ptr }

@.str.1 = private unnamed_addr constant [14 x i8] c"nodeSubplan.c\00", align 1
@.str.13 = private unnamed_addr constant [51 x i8] c"direct correlated subquery unsupported as initplan\00", align 1
@__func__.ExecReScanSetParamPlan = private unnamed_addr constant [23 x i8] c"ExecReScanSetParamPlan\00", align 1
@.str.14 = private unnamed_addr constant [35 x i8] c"setParam list of initplan is empty\00", align 1
@.str.15 = private unnamed_addr constant [34 x i8] c"extParam set of initplan is empty\00", align 1

; Function Attrs: nounwind uwtable
define dso_local void @ExecReScanSetParamPlan(ptr noundef %0, ptr noundef %1) #0 {
  %3 = alloca ptr, align 8
  %4 = alloca ptr, align 8
  %5 = alloca ptr, align 8
  %6 = alloca ptr, align 8
  %7 = alloca ptr, align 8
  %8 = alloca ptr, align 8
  %9 = alloca %struct.ForEachState, align 8
  %10 = alloca i32, align 4
  %11 = alloca ptr, align 8
  store ptr %0, ptr %3, align 8
  store ptr %1, ptr %4, align 8
  call void @llvm.lifetime.start.p0(i64 8, ptr %5) #7
  %12 = load ptr, ptr %3, align 8
  %13 = getelementptr inbounds nuw %struct.SubPlanState, ptr %12, i32 0, i32 2
  %14 = load ptr, ptr %13, align 8
  store ptr %14, ptr %5, align 8
  call void @llvm.lifetime.start.p0(i64 8, ptr %6) #7
  %15 = load ptr, ptr %3, align 8
  %16 = getelementptr inbounds nuw %struct.SubPlanState, ptr %15, i32 0, i32 1
  %17 = load ptr, ptr %16, align 8
  store ptr %17, ptr %6, align 8
  call void @llvm.lifetime.start.p0(i64 8, ptr %7) #7
  %18 = load ptr, ptr %4, align 8
  %19 = getelementptr inbounds nuw %struct.PlanState, ptr %18, i32 0, i32 2
  %20 = load ptr, ptr %19, align 8
  store ptr %20, ptr %7, align 8
  call void @llvm.lifetime.start.p0(i64 8, ptr %8) #7
  %21 = load ptr, ptr %6, align 8
  %22 = getelementptr inbounds nuw %struct.SubPlan, ptr %21, i32 0, i32 13
  %23 = load ptr, ptr %22, align 8
  %24 = icmp ne ptr %23, null
  br i1 %24, label %25, label %36

25:                                               ; preds = %2
  br label %26

26:                                               ; preds = %25
  br i1 true, label %27, label %29

27:                                               ; preds = %26
  %28 = call zeroext i1 @errstart_cold(i32 noundef 21, ptr noundef null) #8
  br i1 %28, label %31, label %33

29:                                               ; preds = %26
  %30 = call zeroext i1 @errstart(i32 noundef 21, ptr noundef null)
  br i1 %30, label %31, label %33

31:                                               ; preds = %29, %27
  %32 = call i32 (ptr, ...) @errmsg_internal(ptr noundef @.str.13)
  call void @errfinish(ptr noundef @.str.1, i32 noundef 1308, ptr noundef @__func__.ExecReScanSetParamPlan)
  br label %33

33:                                               ; preds = %31, %29, %27
  unreachable

34:                                               ; No predecessors!
  br label %35

35:                                               ; preds = %34
  br label %36

36:                                               ; preds = %35, %2
  %37 = load ptr, ptr %6, align 8
  %38 = getelementptr inbounds nuw %struct.SubPlan, ptr %37, i32 0, i32 12
  %39 = load ptr, ptr %38, align 8
  %40 = icmp eq ptr %39, null
  br i1 %40, label %41, label %52

41:                                               ; preds = %36
  br label %42

42:                                               ; preds = %41
  br i1 true, label %43, label %45

43:                                               ; preds = %42
  %44 = call zeroext i1 @errstart_cold(i32 noundef 21, ptr noundef null) #8
  br i1 %44, label %47, label %49

45:                                               ; preds = %42
  %46 = call zeroext i1 @errstart(i32 noundef 21, ptr noundef null)
  br i1 %46, label %47, label %49

47:                                               ; preds = %45, %43
  %48 = call i32 (ptr, ...) @errmsg_internal(ptr noundef @.str.14)
  call void @errfinish(ptr noundef @.str.1, i32 noundef 1310, ptr noundef @__func__.ExecReScanSetParamPlan)
  br label %49

49:                                               ; preds = %47, %45, %43
  unreachable

50:                                               ; No predecessors!
  br label %51

51:                                               ; preds = %50
  br label %52

52:                                               ; preds = %51, %36
  %53 = load ptr, ptr %5, align 8
  %54 = getelementptr inbounds nuw %struct.PlanState, ptr %53, i32 0, i32 1
  %55 = load ptr, ptr %54, align 8
  %56 = getelementptr inbounds nuw %struct.Plan, ptr %55, i32 0, i32 15
  %57 = load ptr, ptr %56, align 8
  %58 = icmp eq ptr %57, null
  br i1 %58, label %59, label %70

59:                                               ; preds = %52
  br label %60

60:                                               ; preds = %59
  br i1 true, label %61, label %63

61:                                               ; preds = %60
  %62 = call zeroext i1 @errstart_cold(i32 noundef 21, ptr noundef null) #8
  br i1 %62, label %65, label %67

63:                                               ; preds = %60
  %64 = call zeroext i1 @errstart(i32 noundef 21, ptr noundef null)
  br i1 %64, label %65, label %67

65:                                               ; preds = %63, %61
  %66 = call i32 (ptr, ...) @errmsg_internal(ptr noundef @.str.15)
  call void @errfinish(ptr noundef @.str.1, i32 noundef 1312, ptr noundef @__func__.ExecReScanSetParamPlan)
  br label %67

67:                                               ; preds = %65, %63, %61
  unreachable

68:                                               ; No predecessors!
  br label %69

69:                                               ; preds = %68
  br label %70

70:                                               ; preds = %69, %52
  call void @llvm.lifetime.start.p0(i64 16, ptr %9) #7
  %71 = getelementptr inbounds nuw %struct.ForEachState, ptr %9, i32 0, i32 0
  %72 = load ptr, ptr %6, align 8
  %73 = getelementptr inbounds nuw %struct.SubPlan, ptr %72, i32 0, i32 12
  %74 = load ptr, ptr %73, align 8
  store ptr %74, ptr %71, align 8
  %75 = getelementptr inbounds nuw %struct.ForEachState, ptr %9, i32 0, i32 1
  store i32 0, ptr %75, align 8
  %76 = getelementptr i8, ptr %9, i64 12
  call void @llvm.memset.p0.i64(ptr align 4 %76, i8 0, i64 4, i1 false)
  br label %77

77:                                               ; preds = %128, %70
  %78 = getelementptr inbounds nuw %struct.ForEachState, ptr %9, i32 0, i32 0
  %79 = load ptr, ptr %78, align 8
  %80 = icmp ne ptr %79, null
  br i1 %80, label %81, label %98

81:                                               ; preds = %77
  %82 = getelementptr inbounds nuw %struct.ForEachState, ptr %9, i32 0, i32 1
  %83 = load i32, ptr %82, align 8
  %84 = getelementptr inbounds nuw %struct.ForEachState, ptr %9, i32 0, i32 0
  %85 = load ptr, ptr %84, align 8
  %86 = getelementptr inbounds nuw %struct.List, ptr %85, i32 0, i32 1
  %87 = load i32, ptr %86, align 4
  %88 = icmp slt i32 %83, %87
  br i1 %88, label %89, label %98

89:                                               ; preds = %81
  %90 = getelementptr inbounds nuw %struct.ForEachState, ptr %9, i32 0, i32 0
  %91 = load ptr, ptr %90, align 8
  %92 = getelementptr inbounds nuw %struct.List, ptr %91, i32 0, i32 3
  %93 = load ptr, ptr %92, align 8
  %94 = getelementptr inbounds nuw %struct.ForEachState, ptr %9, i32 0, i32 1
  %95 = load i32, ptr %94, align 8
  %96 = sext i32 %95 to i64
  %97 = getelementptr inbounds %union.ListCell, ptr %93, i64 %96
  store ptr %97, ptr %8, align 8
  br label %99

98:                                               ; preds = %81, %77
  store ptr null, ptr %8, align 8
  br label %99

99:                                               ; preds = %98, %89
  %100 = phi i32 [ 1, %89 ], [ 0, %98 ]
  %101 = icmp ne i32 %100, 0
  br i1 %101, label %103, label %102

102:                                              ; preds = %99
  call void @llvm.lifetime.end.p0(i64 16, ptr %9) #7
  br label %132

103:                                              ; preds = %99
  call void @llvm.lifetime.start.p0(i64 4, ptr %10) #7
  %104 = load ptr, ptr %8, align 8
  %105 = load i32, ptr %104, align 8
  store i32 %105, ptr %10, align 4
  call void @llvm.lifetime.start.p0(i64 8, ptr %11) #7
  %106 = load ptr, ptr %7, align 8
  %107 = getelementptr inbounds nuw %struct.EState, ptr %106, i32 0, i32 23
  %108 = load ptr, ptr %107, align 8
  %109 = load i32, ptr %10, align 4
  %110 = sext i32 %109 to i64
  %111 = getelementptr inbounds %struct.ParamExecData, ptr %108, i64 %110
  store ptr %111, ptr %11, align 8
  %112 = load ptr, ptr %6, align 8
  %113 = getelementptr inbounds nuw %struct.SubPlan, ptr %112, i32 0, i32 1
  %114 = load i32, ptr %113, align 4
  %115 = icmp ne i32 %114, 7
  br i1 %115, label %116, label %120

116:                                              ; preds = %103
  %117 = load ptr, ptr %3, align 8
  %118 = load ptr, ptr %11, align 8
  %119 = getelementptr inbounds nuw %struct.ParamExecData, ptr %118, i32 0, i32 0
  store ptr %117, ptr %119, align 8
  br label %120

120:                                              ; preds = %116, %103
  %121 = load ptr, ptr %4, align 8
  %122 = getelementptr inbounds nuw %struct.PlanState, ptr %121, i32 0, i32 13
  %123 = load ptr, ptr %122, align 8
  %124 = load i32, ptr %10, align 4
  %125 = call ptr @bms_add_member(ptr noundef %123, i32 noundef %124)
  %126 = load ptr, ptr %4, align 8
  %127 = getelementptr inbounds nuw %struct.PlanState, ptr %126, i32 0, i32 13
  store ptr %125, ptr %127, align 8
  call void @llvm.lifetime.end.p0(i64 8, ptr %11) #7
  call void @llvm.lifetime.end.p0(i64 4, ptr %10) #7
  br label %128

128:                                              ; preds = %120
  %129 = getelementptr inbounds nuw %struct.ForEachState, ptr %9, i32 0, i32 1
  %130 = load i32, ptr %129, align 8
  %131 = add i32 %130, 1
  store i32 %131, ptr %129, align 8
  br label %77, !llvm.loop !18

132:                                              ; preds = %102
  call void @llvm.lifetime.end.p0(i64 8, ptr %8) #7
  call void @llvm.lifetime.end.p0(i64 8, ptr %7) #7
  call void @llvm.lifetime.end.p0(i64 8, ptr %6) #7
  call void @llvm.lifetime.end.p0(i64 8, ptr %5) #7
  ret void
}