; Function Attrs: nounwind uwtable
define dso_local void @ExecReScanSetParamPlan(ptr noundef %0, ptr noundef captures(none) %1) local_unnamed_addr #0 {
  %3 = getelementptr inbounds nuw i8, ptr %0, i64 16
  %4 = load ptr, ptr %3, align 8
  %5 = getelementptr inbounds nuw i8, ptr %0, i64 8
  %6 = load ptr, ptr %5, align 8
  %7 = getelementptr inbounds nuw i8, ptr %1, i64 16
  %8 = load ptr, ptr %7, align 8
  %9 = getelementptr inbounds nuw i8, ptr %6, i64 64
  %10 = load ptr, ptr %9, align 8
  %.not = icmp eq ptr %10, null
  br i1 %.not, label %14, label %11

11:                                               ; preds = %2
  %12 = tail call zeroext i1 @errstart_cold(i32 noundef 21, ptr noundef null) #9
  tail call void @llvm.assume(i1 %12)
  %13 = tail call i32 (ptr, ...) @errmsg_internal(ptr noundef nonnull @.str.13) #8
  tail call void @errfinish(ptr noundef nonnull @.str.1, i32 noundef 1308, ptr noundef nonnull @__func__.ExecReScanSetParamPlan) #8
  unreachable

14:                                               ; preds = %2
  %15 = getelementptr inbounds nuw i8, ptr %6, i64 56
  %16 = load ptr, ptr %15, align 8
  %17 = icmp eq ptr %16, null
  br i1 %17, label %18, label %21

18:                                               ; preds = %14
  %19 = tail call zeroext i1 @errstart_cold(i32 noundef 21, ptr noundef null) #9
  tail call void @llvm.assume(i1 %19)
  %20 = tail call i32 (ptr, ...) @errmsg_internal(ptr noundef nonnull @.str.14) #8
  tail call void @errfinish(ptr noundef nonnull @.str.1, i32 noundef 1310, ptr noundef nonnull @__func__.ExecReScanSetParamPlan) #8
  unreachable

21:                                               ; preds = %14
  %22 = getelementptr inbounds nuw i8, ptr %4, i64 8
  %23 = load ptr, ptr %22, align 8
  %24 = getelementptr inbounds nuw i8, ptr %23, i64 88
  %25 = load ptr, ptr %24, align 8
  %26 = icmp eq ptr %25, null
  br i1 %26, label %33, label %.preheader

.preheader:                                       ; preds = %21
  %27 = getelementptr inbounds nuw i8, ptr %16, i64 4
  %28 = load i32, ptr %27, align 4
  %.not2125 = icmp sgt i32 %28, 0
  br i1 %.not2125, label %.lr.ph, label %._crit_edge

.lr.ph:                                           ; preds = %.preheader
  %29 = getelementptr inbounds nuw i8, ptr %16, i64 16
  %30 = getelementptr inbounds nuw i8, ptr %6, i64 4
  %31 = getelementptr inbounds nuw i8, ptr %8, i64 176
  %32 = getelementptr inbounds nuw i8, ptr %1, i64 104
  br label %36

33:                                               ; preds = %21
  %34 = tail call zeroext i1 @errstart_cold(i32 noundef 21, ptr noundef null) #9
  tail call void @llvm.assume(i1 %34)
  %35 = tail call i32 (ptr, ...) @errmsg_internal(ptr noundef nonnull @.str.15) #8
  tail call void @errfinish(ptr noundef nonnull @.str.1, i32 noundef 1312, ptr noundef nonnull @__func__.ExecReScanSetParamPlan) #8
  unreachable

._crit_edge:                                      ; preds = %45, %.preheader
  ret void

36:                                               ; preds = %.lr.ph, %45
  %indvars.iv = phi i64 [ 0, %.lr.ph ], [ %indvars.iv.next, %45 ]
  %37 = load ptr, ptr %29, align 8
  %38 = getelementptr inbounds nuw %union.ListCell, ptr %37, i64 %indvars.iv
  %39 = load i32, ptr %38, align 8
  %40 = load i32, ptr %30, align 4
  %.not22 = icmp eq i32 %40, 7
  br i1 %.not22, label %45, label %41

41:                                               ; preds = %36
  %42 = load ptr, ptr %31, align 8
  %43 = sext i32 %39 to i64
  %44 = getelementptr inbounds %struct.ParamExecData, ptr %42, i64 %43
  store ptr %0, ptr %44, align 8
  br label %45

45:                                               ; preds = %41, %36
  %46 = load ptr, ptr %32, align 8
  %47 = tail call ptr @bms_add_member(ptr noundef %46, i32 noundef %39) #8
  store ptr %47, ptr %32, align 8
  %indvars.iv.next = add nuw nsw i64 %indvars.iv, 1
  %48 = load i32, ptr %27, align 4
  %49 = sext i32 %48 to i64
  %.not21 = icmp slt i64 %indvars.iv.next, %49
  br i1 %.not21, label %36, label %._crit_edge, !llvm.loop !15
}